#include <math.h>
#include <stdio.h>
#include <stdlib.h>
#include <string.h>

int main()
{
	int n,i,j,k=1,a[20000]={0},b[20000]={0};
	scanf("%d",&n);
	for(i=0;i<n;i++)
		scanf("%d",&a[i]);
	b[0]=a[0];
	for(i=1;i<n;i++)
	{
		for(j=0;j<i;j++)
		{
			if(a[i]==a[j]) break;
			if(j==i-1) {b[k]=a[i];k++;}
		}
	}
	printf("%d",b[0]);
	if(k>1)
	{
		for(i=1;i<k;i++)
		printf(" %d",b[i]);
	}
	return 0;
}