; ModuleID = 'source-C-CXX/12/1449.c'
source_filename = "source-C-CXX/12/1449.c"
target datalayout = "e-m:e-p270:32:32-p271:32:32-p272:64:64-i64:64-f80:128-n8:16:32:64-S128"
target triple = "x86_64-pc-linux-gnu"

@.str = private unnamed_addr constant [3 x i8] c"%d\00", align 1
@.str.1 = private unnamed_addr constant [4 x i8] c" %d\00", align 1

; Function Attrs: nofree nounwind sspstrong uwtable
define dso_local i32 @main() local_unnamed_addr #0 {
  %1 = alloca i32, align 4
  %2 = alloca [20000 x i32], align 16
  %3 = alloca [20000 x i32], align 16
  %4 = bitcast i32* %1 to i8*
  call void @llvm.lifetime.start.p0i8(i64 4, i8* nonnull %4) #4
  %5 = bitcast [20000 x i32]* %2 to i8*
  call void @llvm.lifetime.start.p0i8(i64 80000, i8* nonnull %5) #4
  call void @llvm.memset.p0i8.i64(i8* noundef nonnull align 16 dereferenceable(80000) %5, i8 0, i64 80000, i1 false)
  %6 = bitcast [20000 x i32]* %3 to i8*
  call void @llvm.lifetime.start.p0i8(i64 80000, i8* nonnull %6) #4
  call void @llvm.memset.p0i8.i64(i8* noundef nonnull align 16 dereferenceable(80000) %6, i8 0, i64 80000, i1 false)
  %7 = call i32 (i8*, ...) @__isoc99_scanf(i8* getelementptr inbounds ([3 x i8], [3 x i8]* @.str, i64 0, i64 0), i32* nonnull %1)
  %8 = load i32, i32* %1, align 4, !tbaa !5
  %9 = icmp sgt i32 %8, 0
  br i1 %9, label %10, label %51

10:                                               ; preds = %0, %10
  %11 = phi i64 [ %14, %10 ], [ 0, %0 ]
  %12 = getelementptr inbounds [20000 x i32], [20000 x i32]* %2, i64 0, i64 %11
  %13 = call i32 (i8*, ...) @__isoc99_scanf(i8* getelementptr inbounds ([3 x i8], [3 x i8]* @.str, i64 0, i64 0), i32* nonnull %12)
  %14 = add nuw nsw i64 %11, 1
  %15 = load i32, i32* %1, align 4, !tbaa !5
  %16 = sext i32 %15 to i64
  %17 = icmp slt i64 %14, %16
  br i1 %17, label %10, label %18, !llvm.loop !9

18:                                               ; preds = %10
  %19 = getelementptr inbounds [20000 x i32], [20000 x i32]* %2, i64 0, i64 0
  %20 = load i32, i32* %19, align 16, !tbaa !5
  %21 = getelementptr inbounds [20000 x i32], [20000 x i32]* %3, i64 0, i64 0
  store i32 %20, i32* %21, align 16, !tbaa !5
  %22 = icmp sgt i32 %15, 1
  br i1 %22, label %23, label %51

23:                                               ; preds = %18
  %24 = zext i32 %15 to i64
  br label %25

25:                                               ; preds = %23, %47
  %26 = phi i64 [ 1, %23 ], [ %49, %47 ]
  %27 = phi i32 [ 1, %23 ], [ %48, %47 ]
  %28 = getelementptr inbounds [20000 x i32], [20000 x i32]* %2, i64 0, i64 %26
  %29 = add nsw i64 %26, -1
  %30 = load i32, i32* %28, align 4, !tbaa !5
  br label %31

31:                                               ; preds = %25, %43
  %32 = phi i64 [ 0, %25 ], [ %45, %43 ]
  %33 = phi i32 [ %27, %25 ], [ %44, %43 ]
  %34 = getelementptr inbounds [20000 x i32], [20000 x i32]* %2, i64 0, i64 %32
  %35 = load i32, i32* %34, align 4, !tbaa !5
  %36 = icmp eq i32 %30, %35
  br i1 %36, label %47, label %37

37:                                               ; preds = %31
  %38 = icmp eq i64 %32, %29
  br i1 %38, label %39, label %43

39:                                               ; preds = %37
  %40 = sext i32 %33 to i64
  %41 = getelementptr inbounds [20000 x i32], [20000 x i32]* %3, i64 0, i64 %40
  store i32 %30, i32* %41, align 4, !tbaa !5
  %42 = add nsw i32 %33, 1
  br label %43

43:                                               ; preds = %37, %39
  %44 = phi i32 [ %42, %39 ], [ %33, %37 ]
  %45 = add nuw nsw i64 %32, 1
  %46 = icmp eq i64 %45, %26
  br i1 %46, label %47, label %31, !llvm.loop !11

47:                                               ; preds = %43, %31
  %48 = phi i32 [ %44, %43 ], [ %33, %31 ]
  %49 = add nuw nsw i64 %26, 1
  %50 = icmp eq i64 %49, %24
  br i1 %50, label %54, label %25, !llvm.loop !12

51:                                               ; preds = %0, %18
  %52 = phi i32 [ %20, %18 ], [ 0, %0 ]
  %53 = call i32 (i8*, ...) @printf(i8* nonnull dereferenceable(1) getelementptr inbounds ([3 x i8], [3 x i8]* @.str, i64 0, i64 0), i32 %52)
  br label %67

54:                                               ; preds = %47
  %55 = load i32, i32* %21, align 16, !tbaa !5
  %56 = call i32 (i8*, ...) @printf(i8* nonnull dereferenceable(1) getelementptr inbounds ([3 x i8], [3 x i8]* @.str, i64 0, i64 0), i32 %55)
  %57 = icmp sgt i32 %48, 1
  br i1 %57, label %58, label %67

58:                                               ; preds = %54
  %59 = zext i32 %48 to i64
  br label %60

60:                                               ; preds = %58, %60
  %61 = phi i64 [ 1, %58 ], [ %65, %60 ]
  %62 = getelementptr inbounds [20000 x i32], [20000 x i32]* %3, i64 0, i64 %61
  %63 = load i32, i32* %62, align 4, !tbaa !5
  %64 = call i32 (i8*, ...) @printf(i8* nonnull dereferenceable(1) getelementptr inbounds ([4 x i8], [4 x i8]* @.str.1, i64 0, i64 0), i32 %63)
  %65 = add nuw nsw i64 %61, 1
  %66 = icmp eq i64 %65, %59
  br i1 %66, label %67, label %60, !llvm.loop !13

67:                                               ; preds = %60, %51, %54
  call void @llvm.lifetime.end.p0i8(i64 80000, i8* nonnull %6) #4
  call void @llvm.lifetime.end.p0i8(i64 80000, i8* nonnull %5) #4
  call void @llvm.lifetime.end.p0i8(i64 4, i8* nonnull %4) #4
  ret i32 0
}

; Function Attrs: argmemonly mustprogress nofree nosync nounwind willreturn
declare void @llvm.lifetime.start.p0i8(i64 immarg, i8* nocapture) #1

; Function Attrs: argmemonly mustprogress nofree nounwind willreturn writeonly
declare void @llvm.memset.p0i8.i64(i8* nocapture writeonly, i8, i64, i1 immarg) #2

; Function Attrs: nofree nounwind
declare noundef i32 @__isoc99_scanf(i8* nocapture noundef readonly, ...) local_unnamed_addr #3

; Function Attrs: nofree nounwind
declare noundef i32 @printf(i8* nocapture noundef readonly, ...) local_unnamed_addr #3

; Function Attrs: argmemonly mustprogress nofree nosync nounwind willreturn
declare void @llvm.lifetime.end.p0i8(i64 immarg, i8* nocapture) #1


!llvm.module.flags = !{!0, !1, !2, !3}
!llvm.ident = !{!4}

!0 = !{i32 1, !"wchar_size", i32 4}
!1 = !{i32 7, !"PIC Level", i32 2}
!2 = !{i32 7, !"PIE Level", i32 2}
!3 = !{i32 7, !"uwtable", i32 1}
!4 = !{!"clang version 13.0.0"}
!5 = !{!6, !6, i64 0}
!6 = !{!"int", !7, i64 0}
!7 = !{!"omnipotent char", !8, i64 0}
!8 = !{!"Simple C/C++ TBAA"}
!9 = distinct !{!9, !10}
!10 = !{!"llvm.loop.mustprogress"}
!11 = distinct !{!11, !10}
!12 = distinct !{!12, !10}
!13 = distinct !{!13, !10}
